; Function Attrs: mustprogress nounwind uwtable
define hidden void @_ZN3dpx17RunLengthEncodingD0Ev(ptr noundef nonnull align 8 dereferenceable(24) %this) unnamed_addr #5 align 2 {
entry:
  store ptr getelementptr inbounds ({ [6 x ptr] }, ptr @_ZTVN3dpx17RunLengthEncodingE, i64 0, i32 0, i64 2), ptr %this, align 8
  %buf.i = getelementptr inbounds i8, ptr %this, i64 16
  %0 = load ptr, ptr %buf.i, align 8
  %tobool.not.i = icmp eq ptr %0, null
  br i1 %tobool.not.i, label %_ZN3dpx17RunLengthEncodingD2Ev.exit, label %delete.notnull.i

delete.notnull.i:                                 ; preds = %entry
  tail call void @_ZdaPv(ptr noundef nonnull %0) #8
  br label %_ZN3dpx17RunLengthEncodingD2Ev.exit

_ZN3dpx17RunLengthEncodingD2Ev.exit:              ; preds = %entry, %delete.notnull.i
  tail call void @_ZN3dpx5CodecD2Ev(ptr noundef nonnull align 8 dereferenceable(16) %this) #9
  tail call void @_ZdlPv(ptr noundef nonnull %this) #8
  ret void
}